target datalayout = "e-m:e-p270:32:32-p271:32:32-p272:64:64-i64:64-i128:128-f80:128-n8:16:32:64-S128"
target triple = "x86_64-pc-linux-gnu"

%class.RtpAudioStream = type { %class.QObject, %struct._rtpstream_id, %struct._rtpstream_info, i8, %class.QList, ptr, ptr, ptr, double, double, double, double, i64, %class.AudioRouting, i8, i32, i32, i32, %class.QSet, ptr, %class.QMap, %class.QList.0, %class.QList.4, %class.QList.4, %class.QList.4, %class.QList.4, i16, i16, i32, i32, i32, double, ptr }
%class.QObject = type { ptr, %class.QScopedPointer }
%class.QScopedPointer = type { ptr }
%struct._rtpstream_id = type { %struct._address, i16, %struct._address, i16, i32 }
%struct._address = type { i32, i32, ptr, ptr }
%struct._rtpstream_info = type { %struct._rtpstream_id, i8, ptr, [256 x ptr], ptr, i32, i32, i32, i32, i32, i32, ptr, ptr, %struct.nstime_t, %struct.nstime_t, %struct.nstime_t, i16, i32, i32, %struct._tap_rtp_stat_t, i32, ptr }
%struct.nstime_t = type { i64, i32 }
%struct._tap_rtp_stat_t = type { i32, i32, i16, i64, i64, double, [300 x %struct._bw_history_item], i16, i16, i32, i32, double, double, double, double, double, double, double, double, double, double, double, double, double, double, double, double, double, double, double, i32, i16, i16, i32, i32, i32, i32, i16, i32, i32, i32 }
%struct._bw_history_item = type { double, i32 }
%class.QList = type { %struct.QArrayDataPointer }
%struct.QArrayDataPointer = type { ptr, ptr, i64 }
%class.AudioRouting = type { i8, i32 }
%class.QSet = type { %class.QHash }
%class.QHash = type { ptr }
%class.QMap = type { %"class.QtPrivate::QExplicitlySharedDataPointerV2" }
%"class.QtPrivate::QExplicitlySharedDataPointerV2" = type { ptr }
%class.QList.0 = type { %struct.QArrayDataPointer.3 }
%struct.QArrayDataPointer.3 = type { ptr, ptr, i64 }
%class.QList.4 = type { %struct.QArrayDataPointer.7 }
%struct.QArrayDataPointer.7 = type { ptr, ptr, i64 }
%struct._rtp_packet = type { i32, ptr, double, ptr }
%struct._rtp_info = type { i32, i32, i32, i32, i32, i16, i32, i32, i64, i32, i32, i32, i32, i32, i32, i32, ptr, ptr, i32, i32, ptr, i32, ptr }
%struct._packet_info = type { ptr, ptr, i32, i32, %struct.nstime_t, %struct.nstime_t, %struct.nstime_t, i32, ptr, ptr, ptr, ptr, %struct._address, %struct._address, %struct._address, %struct._address, %struct._address, %struct._address, i32, ptr, i32, %struct.anon, i32, i32, i32, i32, ptr, i32, ptr, ptr, i16, i16, i32, i32, i16, i32, i32, ptr, ptr, ptr, i8, i8, i16, i16, i16, i32, i16, i16, ptr, ptr, ptr, ptr, ptr, i32 }
%struct.anon = type { i8, [3 x i8] }

; Function Attrs: mustprogress nounwind uwtable
define linkonce_odr noundef ptr @_ZN17QArrayDataPointerIP11_rtp_packetE4dataEv(ptr noundef nonnull align 8 dereferenceable(24) %0) #2 comdat align 2 {
  %2 = alloca ptr, align 8
  store ptr %0, ptr %2, align 8
  %3 = load ptr, ptr %2, align 8
  %4 = getelementptr inbounds %struct.QArrayDataPointer, ptr %3, i32 0, i32 1
  %5 = load ptr, ptr %4, align 8
  ret ptr %5
}

; Function Attrs: mustprogress nounwind uwtable
define linkonce_odr noundef ptr @_ZN17QArrayDataPointerIP11_rtp_packetE3endEv(ptr noundef nonnull align 8 dereferenceable(24) %0) #2 comdat align 2 {
  %2 = alloca ptr, align 8
  store ptr %0, ptr %2, align 8
  %3 = load ptr, ptr %2, align 8
  %4 = call noundef ptr @_ZN17QArrayDataPointerIP11_rtp_packetE4dataEv(ptr noundef nonnull align 8 dereferenceable(24) %3) #20
  %5 = getelementptr inbounds %struct.QArrayDataPointer, ptr %3, i32 0, i32 2
  %6 = load i64, ptr %5, align 8
  %7 = getelementptr ptr, ptr %4, i64 %6
  ret ptr %7
}

; Function Attrs: mustprogress nounwind uwtable
define linkonce_odr noundef ptr @_ZN17QArrayDataPointerIP11_rtp_packetEptEv(ptr noundef nonnull align 8 dereferenceable(24) %0) #2 comdat align 2 {
  %2 = alloca ptr, align 8
  store ptr %0, ptr %2, align 8
  %3 = load ptr, ptr %2, align 8
  ret ptr %3
}

; Function Attrs: mustprogress uwtable
define linkonce_odr noundef nonnull align 8 dereferenceable(8) ptr @_ZN5QListIP11_rtp_packetE11emplaceBackIJRS1_EEES4_DpOT_(ptr noundef nonnull align 8 dereferenceable(24) %0, ptr noundef nonnull align 8 dereferenceable(8) %1) #0 comdat align 2 {
  %3 = alloca ptr, align 8
  %4 = alloca ptr, align 8
  store ptr %0, ptr %3, align 8
  store ptr %1, ptr %4, align 8
  %5 = load ptr, ptr %3, align 8
  %6 = getelementptr inbounds %class.QList, ptr %5, i32 0, i32 0
  %7 = call noundef ptr @_ZN17QArrayDataPointerIP11_rtp_packetEptEv(ptr noundef nonnull align 8 dereferenceable(24) %6) #20
  %8 = getelementptr inbounds %class.QList, ptr %5, i32 0, i32 0
  %9 = call noundef ptr @_ZN17QArrayDataPointerIP11_rtp_packetEptEv(ptr noundef nonnull align 8 dereferenceable(24) %8) #20
  %10 = getelementptr inbounds %struct.QArrayDataPointer, ptr %9, i32 0, i32 2
  %11 = load i64, ptr %10, align 8
  %12 = load ptr, ptr %4, align 8
  call void @_ZN9QtPrivate12QPodArrayOpsIP11_rtp_packetE7emplaceIJRS2_EEEvxDpOT_(ptr noundef nonnull align 8 dereferenceable(24) %7, i64 noundef %11, ptr noundef nonnull align 8 dereferenceable(8) %12)
  %13 = getelementptr inbounds %class.QList, ptr %5, i32 0, i32 0
  %14 = call noundef ptr @_ZN17QArrayDataPointerIP11_rtp_packetE3endEv(ptr noundef nonnull align 8 dereferenceable(24) %13) #20
  %15 = getelementptr ptr, ptr %14, i64 -1
  ret ptr %15
}

; Function Attrs: mustprogress uwtable
define linkonce_odr void @_ZN5QListIP11_rtp_packetE6appendES1_(ptr noundef nonnull align 8 dereferenceable(24) %0, ptr noundef %1) #0 comdat align 2 {
  %3 = alloca ptr, align 8
  %4 = alloca ptr, align 8
  store ptr %0, ptr %3, align 8
  store ptr %1, ptr %4, align 8
  %5 = load ptr, ptr %3, align 8
  %6 = call noundef nonnull align 8 dereferenceable(8) ptr @_ZN5QListIP11_rtp_packetE11emplaceBackIJRS1_EEES4_DpOT_(ptr noundef nonnull align 8 dereferenceable(24) %5, ptr noundef nonnull align 8 dereferenceable(8) %4)
  ret void
}

; Function Attrs: mustprogress nounwind uwtable
define linkonce_odr noundef ptr @_ZNK17QArrayDataPointerIP11_rtp_packetEptEv(ptr noundef nonnull align 8 dereferenceable(24) %0) #2 comdat align 2 {
  %2 = alloca ptr, align 8
  store ptr %0, ptr %2, align 8
  %3 = load ptr, ptr %2, align 8
  ret ptr %3
}

; Function Attrs: mustprogress uwtable
define linkonce_odr noundef nonnull align 8 dereferenceable(24) ptr @_ZN5QListIP11_rtp_packetElsES1_(ptr noundef nonnull align 8 dereferenceable(24) %0, ptr noundef %1) #0 comdat align 2 {
  %3 = alloca ptr, align 8
  %4 = alloca ptr, align 8
  store ptr %0, ptr %3, align 8
  store ptr %1, ptr %4, align 8
  %5 = load ptr, ptr %3, align 8
  %6 = load ptr, ptr %4, align 8
  call void @_ZN5QListIP11_rtp_packetE6appendES1_(ptr noundef nonnull align 8 dereferenceable(24) %5, ptr noundef %6)
  ret ptr %5
}

; Function Attrs: mustprogress nounwind uwtable
define linkonce_odr noundef i64 @_ZNK5QListIP11_rtp_packetE4sizeEv(ptr noundef nonnull align 8 dereferenceable(24) %0) #2 comdat align 2 {
  %2 = alloca ptr, align 8
  store ptr %0, ptr %2, align 8
  %3 = load ptr, ptr %2, align 8
  %4 = getelementptr inbounds %class.QList, ptr %3, i32 0, i32 0
  %5 = call noundef ptr @_ZNK17QArrayDataPointerIP11_rtp_packetEptEv(ptr noundef nonnull align 8 dereferenceable(24) %4) #20
  %6 = getelementptr inbounds %struct.QArrayDataPointer, ptr %5, i32 0, i32 2
  %7 = load i64, ptr %6, align 8
  ret i64 %7
}

; Function Attrs: mustprogress uwtable
define void @_ZN14RtpAudioStream12addRtpPacketEPK12_packet_infoPK9_rtp_info(ptr noundef nonnull align 8 dereferenceable(7680) %0, ptr noundef %1, ptr noundef %2) #0 align 2 {
  %4 = alloca ptr, align 8
  %5 = alloca ptr, align 8
  %6 = alloca ptr, align 8
  %7 = alloca ptr, align 8
  store ptr %0, ptr %4, align 8
  store ptr %1, ptr %5, align 8
  store ptr %2, ptr %6, align 8
  %8 = load ptr, ptr %4, align 8
  %9 = load ptr, ptr %6, align 8
  %10 = icmp ne ptr %9, null
  br i1 %10, label %12, label %11

11:                                               ; preds = %3
  br label %89

12:                                               ; preds = %3
  %13 = getelementptr inbounds %class.RtpAudioStream, ptr %8, i32 0, i32 3
  %14 = load i8, ptr %13, align 8
  %15 = trunc i8 %14 to i1
  br i1 %15, label %16, label %21

16:                                               ; preds = %12
  %17 = getelementptr inbounds %class.RtpAudioStream, ptr %8, i32 0, i32 2
  %18 = load ptr, ptr %5, align 8
  %19 = load ptr, ptr %6, align 8
  call void @rtpstream_info_analyse_init(ptr noundef %17, ptr noundef %18, ptr noundef %19)
  %20 = getelementptr inbounds %class.RtpAudioStream, ptr %8, i32 0, i32 3
  store i8 0, ptr %20, align 8
  br label %21

21:                                               ; preds = %16, %12
  %22 = getelementptr inbounds %class.RtpAudioStream, ptr %8, i32 0, i32 2
  %23 = load ptr, ptr %5, align 8
  %24 = load ptr, ptr %6, align 8
  call void @rtpstream_info_analyse_process(ptr noundef %22, ptr noundef %23, ptr noundef %24)
  %25 = call noalias ptr @g_malloc0_n(i64 noundef 1, i64 noundef 32) #25
  store ptr %25, ptr %7, align 8
  %26 = load ptr, ptr %6, align 8
  %27 = call ptr @g_memdup2(ptr noundef %26, i64 noundef 120) #26
  %28 = load ptr, ptr %7, align 8
  %29 = getelementptr inbounds %struct._rtp_packet, ptr %28, i32 0, i32 1
  store ptr %27, ptr %29, align 8
  %30 = load ptr, ptr %6, align 8
  %31 = getelementptr inbounds %struct._rtp_info, ptr %30, i32 0, i32 11
  %32 = load i32, ptr %31, align 8
  %33 = icmp ne i32 %32, 0
  br i1 %33, label %34, label %55

34:                                               ; preds = %21
  %35 = load ptr, ptr %6, align 8
  %36 = getelementptr inbounds %struct._rtp_info, ptr %35, i32 0, i32 13
  %37 = load i32, ptr %36, align 8
  %38 = icmp ne i32 %37, 0
  br i1 %38, label %39, label %55

39:                                               ; preds = %34
  %40 = load ptr, ptr %6, align 8
  %41 = getelementptr inbounds %struct._rtp_info, ptr %40, i32 0, i32 16
  %42 = load ptr, ptr %41, align 8
  %43 = load ptr, ptr %6, align 8
  %44 = getelementptr inbounds %struct._rtp_info, ptr %43, i32 0, i32 12
  %45 = load i32, ptr %44, align 4
  %46 = zext i32 %45 to i64
  %47 = getelementptr i8, ptr %42, i64 %46
  %48 = load ptr, ptr %6, align 8
  %49 = getelementptr inbounds %struct._rtp_info, ptr %48, i32 0, i32 13
  %50 = load i32, ptr %49, align 8
  %51 = zext i32 %50 to i64
  %52 = call ptr @g_memdup2(ptr noundef %47, i64 noundef %51) #26
  %53 = load ptr, ptr %7, align 8
  %54 = getelementptr inbounds %struct._rtp_packet, ptr %53, i32 0, i32 3
  store ptr %52, ptr %54, align 8
  br label %55

55:                                               ; preds = %39, %34, %21
  %56 = getelementptr inbounds %class.RtpAudioStream, ptr %8, i32 0, i32 4
  %57 = call noundef i64 @_ZNK5QListIP11_rtp_packetE4sizeEv(ptr noundef nonnull align 8 dereferenceable(24) %56) #20
  %58 = icmp slt i64 %57, 1
  br i1 %58, label %59, label %72

59:                                               ; preds = %55
  %60 = load ptr, ptr %5, align 8
  %61 = getelementptr inbounds %struct._packet_info, ptr %60, i32 0, i32 4
  %62 = call double @nstime_to_sec(ptr noundef %61)
  %63 = getelementptr inbounds %class.RtpAudioStream, ptr %8, i32 0, i32 10
  %64 = load double, ptr %63, align 8
  %65 = fsub double %62, %64
  %66 = getelementptr inbounds %class.RtpAudioStream, ptr %8, i32 0, i32 9
  store double %65, ptr %66, align 8
  %67 = load ptr, ptr %5, align 8
  %68 = getelementptr inbounds %struct._packet_info, ptr %67, i32 0, i32 5
  %69 = call double @nstime_to_sec(ptr noundef %68)
  %70 = getelementptr inbounds %class.RtpAudioStream, ptr %8, i32 0, i32 11
  store double %69, ptr %70, align 8
  %71 = getelementptr inbounds %class.RtpAudioStream, ptr %8, i32 0, i32 10
  store double %69, ptr %71, align 8
  br label %72

72:                                               ; preds = %59, %55
  %73 = load ptr, ptr %5, align 8
  %74 = getelementptr inbounds %struct._packet_info, ptr %73, i32 0, i32 3
  %75 = load i32, ptr %74, align 4
  %76 = load ptr, ptr %7, align 8
  %77 = getelementptr inbounds %struct._rtp_packet, ptr %76, i32 0, i32 0
  store i32 %75, ptr %77, align 8
  %78 = load ptr, ptr %5, align 8
  %79 = getelementptr inbounds %struct._packet_info, ptr %78, i32 0, i32 5
  %80 = call double @nstime_to_sec(ptr noundef %79)
  %81 = getelementptr inbounds %class.RtpAudioStream, ptr %8, i32 0, i32 10
  %82 = load double, ptr %81, align 8
  %83 = fsub double %80, %82
  %84 = load ptr, ptr %7, align 8
  %85 = getelementptr inbounds %struct._rtp_packet, ptr %84, i32 0, i32 2
  store double %83, ptr %85, align 8
  %86 = getelementptr inbounds %class.RtpAudioStream, ptr %8, i32 0, i32 4
  %87 = load ptr, ptr %7, align 8
  %88 = call noundef nonnull align 8 dereferenceable(24) ptr @_ZN5QListIP11_rtp_packetElsES1_(ptr noundef nonnull align 8 dereferenceable(24) %86, ptr noundef %87)
  br label %89

89:                                               ; preds = %72, %11
  ret void
}