; Function Attrs: mustprogress uwtable
define void @_ZN14RtpAudioStream12addRtpPacketEPK12_packet_infoPK9_rtp_info(ptr noundef nonnull align 8 dereferenceable(7680) %0, ptr noundef %1, ptr noundef %2) local_unnamed_addr #0 align 2 {
  %4 = alloca ptr, align 8
  %.not = icmp eq ptr %2, null
  br i1 %.not, label %56, label %5

5:                                                ; preds = %3
  %6 = getelementptr inbounds i8, ptr %0, i64 7384
  %7 = load i8, ptr %6, align 8
  %8 = and i8 %7, 1
  %.not22 = icmp eq i8 %8, 0
  br i1 %.not22, label %11, label %9

9:                                                ; preds = %5
  %10 = getelementptr inbounds i8, ptr %0, i64 80
  tail call void @rtpstream_info_analyse_init(ptr noundef nonnull %10, ptr noundef %1, ptr noundef nonnull %2)
  store i8 0, ptr %6, align 8
  br label %11

11:                                               ; preds = %9, %5
  %12 = getelementptr inbounds i8, ptr %0, i64 80
  tail call void @rtpstream_info_analyse_process(ptr noundef nonnull %12, ptr noundef %1, ptr noundef nonnull %2)
  %13 = tail call noalias dereferenceable_or_null(32) ptr @g_malloc0_n(i64 noundef 1, i64 noundef 32) #28
  %14 = tail call dereferenceable_or_null(120) ptr @g_memdup2(ptr noundef nonnull %2, i64 noundef 120) #29
  %15 = getelementptr inbounds i8, ptr %13, i64 8
  store ptr %14, ptr %15, align 8
  %16 = getelementptr inbounds i8, ptr %2, i64 48
  %17 = load i32, ptr %16, align 8
  %.not23 = icmp eq i32 %17, 0
  br i1 %.not23, label %31, label %18

18:                                               ; preds = %11
  %19 = getelementptr inbounds i8, ptr %2, i64 56
  %20 = load i32, ptr %19, align 8
  %.not24 = icmp eq i32 %20, 0
  br i1 %.not24, label %31, label %21

21:                                               ; preds = %18
  %22 = getelementptr inbounds i8, ptr %2, i64 72
  %23 = load ptr, ptr %22, align 8
  %24 = getelementptr inbounds i8, ptr %2, i64 52
  %25 = load i32, ptr %24, align 4
  %26 = zext i32 %25 to i64
  %27 = getelementptr i8, ptr %23, i64 %26
  %28 = zext i32 %20 to i64
  %29 = tail call ptr @g_memdup2(ptr noundef %27, i64 noundef %28) #29
  %30 = getelementptr inbounds i8, ptr %13, i64 24
  store ptr %29, ptr %30, align 8
  br label %31

31:                                               ; preds = %21, %18, %11
  %32 = getelementptr inbounds i8, ptr %0, i64 7392
  %33 = getelementptr inbounds i8, ptr %0, i64 7408
  %34 = load i64, ptr %33, align 8
  %35 = icmp slt i64 %34, 1
  br i1 %35, label %36, label %46

36:                                               ; preds = %31
  %37 = getelementptr inbounds i8, ptr %1, i64 24
  %38 = tail call double @nstime_to_sec(ptr noundef nonnull %37)
  %39 = getelementptr inbounds i8, ptr %0, i64 7456
  %40 = load double, ptr %39, align 8
  %41 = fsub double %38, %40
  %42 = getelementptr inbounds i8, ptr %0, i64 7448
  store double %41, ptr %42, align 8
  %43 = getelementptr inbounds i8, ptr %1, i64 40
  %44 = tail call double @nstime_to_sec(ptr noundef nonnull %43)
  %45 = getelementptr inbounds i8, ptr %0, i64 7464
  store double %44, ptr %45, align 8
  store double %44, ptr %39, align 8
  br label %46

46:                                               ; preds = %36, %31
  %47 = getelementptr inbounds i8, ptr %1, i64 20
  %48 = load i32, ptr %47, align 4
  store i32 %48, ptr %13, align 8
  %49 = getelementptr inbounds i8, ptr %1, i64 40
  %50 = tail call double @nstime_to_sec(ptr noundef nonnull %49)
  %51 = getelementptr inbounds i8, ptr %0, i64 7456
  %52 = load double, ptr %51, align 8
  %53 = fsub double %50, %52
  %54 = getelementptr inbounds i8, ptr %13, i64 16
  store double %53, ptr %54, align 8
  call void @llvm.lifetime.start.p0(i64 8, ptr nonnull %4)
  store ptr %13, ptr %4, align 8
  %55 = load i64, ptr %33, align 8
  call void @_ZN9QtPrivate12QPodArrayOpsIP11_rtp_packetE7emplaceIJRS2_EEEvxDpOT_(ptr noundef nonnull align 8 dereferenceable(24) %32, i64 noundef %55, ptr noundef nonnull align 8 dereferenceable(8) %4)
  call void @llvm.lifetime.end.p0(i64 8, ptr nonnull %4)
  br label %56

56:                                               ; preds = %3, %46
  ret void
}